target datalayout = "e-m:e-p270:32:32-p271:32:32-p272:64:64-i64:64-i128:128-f80:128-n8:16:32:64-S128"
target triple = "x86_64-pc-linux-gnu"

%class.anon = type { i8 }

; Function Attrs: inlinehint mustprogress nounwind uwtable
define internal noundef ptr @"_ZZN8nanobind6detail11capsule_newEPKvPKcPDoFvPvEENK3$_0cvPFvP7_objectEEv"(ptr noundef nonnull align 1 dereferenceable(1) %0) #9 align 2 {
  %2 = alloca ptr, align 8
  store ptr %0, ptr %2, align 8
  ret ptr @"_ZZN8nanobind6detail11capsule_newEPKvPKcPDoFvPvEEN3$_08__invokeEP7_object"
}

; Function Attrs: mustprogress nounwind uwtable
define noundef ptr @_ZN8nanobind6detail11capsule_newEPKvPKcPDoFvPvE(ptr noundef %0, ptr noundef %1, ptr noundef %2) #4 personality ptr @__gxx_personality_v0 {
  %4 = alloca ptr, align 8
  %5 = alloca ptr, align 8
  %6 = alloca ptr, align 8
  %7 = alloca %class.anon, align 1
  %8 = alloca ptr, align 8
  %9 = alloca i32, align 4
  store ptr %0, ptr %4, align 8
  store ptr %1, ptr %5, align 8
  store ptr %2, ptr %6, align 8
  call void @llvm.lifetime.start.p0(i64 1, ptr %7) #20
  call void @llvm.lifetime.start.p0(i64 8, ptr %8) #20
  %10 = load ptr, ptr %4, align 8
  %11 = load ptr, ptr %5, align 8
  %12 = call noundef ptr @"_ZZN8nanobind6detail11capsule_newEPKvPKcPDoFvPvEENK3$_0cvPFvP7_objectEEv"(ptr noundef nonnull align 1 dereferenceable(1) %7) #20
  %13 = invoke ptr @PyCapsule_New(ptr noundef %10, ptr noundef %11, ptr noundef %12)
          to label %14 unwind label %36

14:                                               ; preds = %3
  store ptr %13, ptr %8, align 8
  %15 = load ptr, ptr %8, align 8
  %16 = icmp ne ptr %15, null
  %17 = xor i1 %16, true
  %18 = zext i1 %17 to i64
  %19 = call i64 @llvm.expect.i64(i64 %18, i64 0)
  %20 = icmp ne i64 %19, 0
  br i1 %20, label %21, label %22

21:                                               ; preds = %14
  call void @_ZN8nanobind6detail16fail_unspecifiedEv() #22
  unreachable

22:                                               ; preds = %14
  call void @llvm.lifetime.start.p0(i64 4, ptr %9) #20
  %23 = load ptr, ptr %8, align 8
  %24 = load ptr, ptr %6, align 8
  %25 = invoke i32 @PyCapsule_SetContext(ptr noundef %23, ptr noundef %24)
          to label %26 unwind label %36

26:                                               ; preds = %22
  store i32 %25, ptr %9, align 4
  %27 = load i32, ptr %9, align 4
  %28 = icmp eq i32 %27, 0
  %29 = xor i1 %28, true
  %30 = zext i1 %29 to i64
  %31 = call i64 @llvm.expect.i64(i64 %30, i64 0)
  %32 = icmp ne i64 %31, 0
  br i1 %32, label %33, label %34

33:                                               ; preds = %26
  call void @_ZN8nanobind6detail16fail_unspecifiedEv() #22
  unreachable

34:                                               ; preds = %26
  %35 = load ptr, ptr %8, align 8
  call void @llvm.lifetime.end.p0(i64 4, ptr %9) #20
  call void @llvm.lifetime.end.p0(i64 8, ptr %8) #20
  call void @llvm.lifetime.end.p0(i64 1, ptr %7) #20
  ret ptr %35

36:                                               ; preds = %22, %3
  %37 = landingpad { ptr, i32 }
          catch ptr null
  %38 = extractvalue { ptr, i32 } %37, 0
  call void @__clang_call_terminate(ptr %38) #22
  unreachable
}