; Function Attrs: mustprogress nounwind uwtable
define noundef ptr @_ZN8nanobind6detail11capsule_newEPKvPKcPDoFvPvE(ptr noundef %0, ptr noundef %1, ptr noundef %2) local_unnamed_addr #9 personality ptr @__gxx_personality_v0 {
  %4 = invoke ptr @PyCapsule_New(ptr noundef %0, ptr noundef %1, ptr noundef nonnull @"_ZZN8nanobind6detail11capsule_newEPKvPKcPDoFvPvEEN3$_08__invokeEP7_object")
          to label %5 unwind label %12

5:                                                ; preds = %3
  %.not = icmp eq ptr %4, null
  br i1 %.not, label %6, label %7, !prof !3

6:                                                ; preds = %5
  tail call void @_ZN8nanobind6detail16fail_unspecifiedEv() #29
  unreachable

7:                                                ; preds = %5
  %8 = invoke i32 @PyCapsule_SetContext(ptr noundef nonnull %4, ptr noundef %2)
          to label %9 unwind label %12

9:                                                ; preds = %7
  %.not6 = icmp eq i32 %8, 0
  br i1 %.not6, label %11, label %10, !prof !4

10:                                               ; preds = %9
  tail call void @_ZN8nanobind6detail16fail_unspecifiedEv() #29
  unreachable

11:                                               ; preds = %9
  ret ptr %4

12:                                               ; preds = %7, %3
  %13 = landingpad { ptr, i32 }
          catch ptr null
  %14 = extractvalue { ptr, i32 } %13, 0
  tail call void @__clang_call_terminate(ptr %14) #29
  unreachable
}